
userland/fastfetch/build/fastfetch:     file format elf64-x86-64


Disassembly of section .text:

0000000000400000 <_start>:
  400000:	48 31 ed             	xor    %rbp,%rbp
  400003:	48 8b 3c 24          	mov    (%rsp),%rdi
  400007:	48 8d 74 24 08       	lea    0x8(%rsp),%rsi
  40000c:	48 89 fa             	mov    %rdi,%rdx
  40000f:	48 c1 e2 03          	shl    $0x3,%rdx
  400013:	48 8d 54 14 10       	lea    0x10(%rsp,%rdx,1),%rdx
  400018:	41 54                	push   %r12
  40001a:	49 89 e4             	mov    %rsp,%r12
  40001d:	48 83 e4 f0          	and    $0xfffffffffffffff0,%rsp
  400021:	48 83 ec 08          	sub    $0x8,%rsp
  400025:	e8 16 00 00 00       	call   400040 <main>
  40002a:	4c 89 e4             	mov    %r12,%rsp
  40002d:	41 5c                	pop    %r12
  40002f:	48 89 c7             	mov    %rax,%rdi
  400032:	48 c7 c0 01 00 00 00 	mov    $0x1,%rax
  400039:	0f 05                	syscall
  40003b:	f4                   	hlt
  40003c:	eb fd                	jmp    40003b <_start+0x3b>
  40003e:	cc                   	int3
  40003f:	cc                   	int3

0000000000400040 <main>:
  400040:	55                   	push   %rbp
  400041:	48 89 e5             	mov    %rsp,%rbp
  400044:	41 57                	push   %r15
  400046:	41 56                	push   %r14
  400048:	53                   	push   %rbx
  400049:	50                   	push   %rax
  40004a:	bf 18 11 40 00       	mov    $0x401118,%edi
  40004f:	e8 6a 02 00 00       	call   4002be <out>
  400054:	bf 3b 11 40 00       	mov    $0x40113b,%edi
  400059:	e8 60 02 00 00       	call   4002be <out>
  40005e:	bf 62 10 40 00       	mov    $0x401062,%edi
  400063:	e8 56 02 00 00       	call   4002be <out>
  400068:	bf 3b 11 40 00       	mov    $0x40113b,%edi
  40006d:	e8 4c 02 00 00       	call   4002be <out>
  400072:	bf d0 10 40 00       	mov    $0x4010d0,%edi
  400077:	e8 42 02 00 00       	call   4002be <out>
  40007c:	bf 3b 11 40 00       	mov    $0x40113b,%edi
  400081:	e8 38 02 00 00       	call   4002be <out>
  400086:	bf a7 10 40 00       	mov    $0x4010a7,%edi
  40008b:	e8 2e 02 00 00       	call   4002be <out>
  400090:	bf 3b 11 40 00       	mov    $0x40113b,%edi
  400095:	e8 24 02 00 00       	call   4002be <out>
  40009a:	bf 63 10 40 00       	mov    $0x401063,%edi
  40009f:	e8 1a 02 00 00       	call   4002be <out>
  4000a4:	bf 3b 11 40 00       	mov    $0x40113b,%edi
  4000a9:	e8 10 02 00 00       	call   4002be <out>
  4000ae:	bf 6d 11 40 00       	mov    $0x40116d,%edi
  4000b3:	e8 06 02 00 00       	call   4002be <out>
  4000b8:	bf 3b 11 40 00       	mov    $0x40113b,%edi
  4000bd:	e8 fc 01 00 00       	call   4002be <out>
  4000c2:	bf 39 10 40 00       	mov    $0x401039,%edi
  4000c7:	e8 f2 01 00 00       	call   4002be <out>
  4000cc:	bf 3b 11 40 00       	mov    $0x40113b,%edi
  4000d1:	e8 e8 01 00 00       	call   4002be <out>
  4000d6:	bf 08 10 40 00       	mov    $0x401008,%edi
  4000db:	e8 de 01 00 00       	call   4002be <out>
  4000e0:	bf 3b 11 40 00       	mov    $0x40113b,%edi
  4000e5:	e8 d4 01 00 00       	call   4002be <out>
  4000ea:	bf 62 10 40 00       	mov    $0x401062,%edi
  4000ef:	e8 ca 01 00 00       	call   4002be <out>
  4000f4:	bf 3b 11 40 00       	mov    $0x40113b,%edi
  4000f9:	e8 c0 01 00 00       	call   4002be <out>
  4000fe:	48 c7 c0 7a fe ff ff 	mov    $0xfffffffffffffe7a,%rax
  400105:	c6 80 86 21 40 00 00 	movb   $0x0,0x402186(%rax)
  40010c:	48 ff c0             	inc    %rax
  40010f:	75 f4                	jne    400105 <main+0xc5>
  400111:	41 be 00 20 40 00    	mov    $0x402000,%r14d
  400117:	bf 15 00 00 00       	mov    $0x15,%edi
  40011c:	be 00 20 40 00       	mov    $0x402000,%esi
  400121:	31 d2                	xor    %edx,%edx
  400123:	31 c9                	xor    %ecx,%ecx
  400125:	45 31 c0             	xor    %r8d,%r8d
  400128:	45 31 c9             	xor    %r9d,%r9d
  40012b:	e8 e4 03 00 00       	call   400514 <__syscall>
  400130:	85 c0                	test   %eax,%eax
  400132:	0f 85 2c 01 00 00    	jne    400264 <main+0x224>
  400138:	80 3d 02 1f 00 00 00 	cmpb   $0x0,0x1f02(%rip)        # 402041 <main.uts+0x41>
  40013f:	b8 2a 11 40 00       	mov    $0x40112a,%eax
  400144:	bb 41 20 40 00       	mov    $0x402041,%ebx
  400149:	48 0f 44 d8          	cmove  %rax,%rbx
  40014d:	e8 51 01 00 00       	call   4002a3 <asd_getuid>
  400152:	85 c0                	test   %eax,%eax
  400154:	b8 32 11 40 00       	mov    $0x401132,%eax
  400159:	41 bf 9f 10 40 00    	mov    $0x40109f,%r15d
  40015f:	4c 0f 44 f8          	cmove  %rax,%r15
  400163:	bf 5d 11 40 00       	mov    $0x40115d,%edi
  400168:	e8 51 01 00 00       	call   4002be <out>
  40016d:	4c 89 ff             	mov    %r15,%rdi
  400170:	e8 49 01 00 00       	call   4002be <out>
  400175:	bf f9 10 40 00       	mov    $0x4010f9,%edi
  40017a:	e8 3f 01 00 00       	call   4002be <out>
  40017f:	48 89 df             	mov    %rbx,%rdi
  400182:	e8 f1 00 00 00       	call   400278 <outln>
  400187:	bf 0d 11 40 00       	mov    $0x40110d,%edi
  40018c:	e8 e7 00 00 00       	call   400278 <outln>
  400191:	bf 62 10 40 00       	mov    $0x401062,%edi
  400196:	e8 dd 00 00 00       	call   400278 <outln>
  40019b:	80 3d 5e 1e 00 00 00 	cmpb   $0x0,0x1e5e(%rip)        # 402000 <main.uts>
  4001a2:	b8 3d 11 40 00       	mov    $0x40113d,%eax
  4001a7:	4c 0f 44 f0          	cmove  %rax,%r14
  4001ab:	bf a4 10 40 00       	mov    $0x4010a4,%edi
  4001b0:	4c 89 f6             	mov    %r14,%rsi
  4001b3:	e8 45 01 00 00       	call   4002fd <out_field>
  4001b8:	80 3d c3 1e 00 00 00 	cmpb   $0x0,0x1ec3(%rip)        # 402082 <main.uts+0x82>
  4001bf:	b8 99 10 40 00       	mov    $0x401099,%eax
  4001c4:	be 82 20 40 00       	mov    $0x402082,%esi
  4001c9:	48 0f 44 f0          	cmove  %rax,%rsi
  4001cd:	bf 66 11 40 00       	mov    $0x401166,%edi
  4001d2:	e8 26 01 00 00       	call   4002fd <out_field>
  4001d7:	bf fb 10 40 00       	mov    $0x4010fb,%edi
  4001dc:	e8 dd 00 00 00       	call   4002be <out>
  4001e1:	e8 11 03 00 00       	call   4004f7 <asd_time>
  4001e6:	48 b9 bd 42 7a e5 d5 	movabs $0xd6bf94d5e57a42bd,%rcx
  4001ed:	94 bf d6 
  4001f0:	48 f7 e1             	mul    %rcx
  4001f3:	48 89 d7             	mov    %rdx,%rdi
  4001f6:	48 c1 ef 17          	shr    $0x17,%rdi
  4001fa:	e8 3a 01 00 00       	call   400339 <out_uptime>
  4001ff:	bf 62 10 40 00       	mov    $0x401062,%edi
  400204:	e8 6f 00 00 00       	call   400278 <outln>
  400209:	bf 94 10 40 00       	mov    $0x401094,%edi
  40020e:	48 89 de             	mov    %rbx,%rsi
  400211:	e8 e7 00 00 00       	call   4002fd <out_field>
  400216:	80 3d e7 1e 00 00 00 	cmpb   $0x0,0x1ee7(%rip)        # 402104 <main.uts+0x104>
  40021d:	b8 06 11 40 00       	mov    $0x401106,%eax
  400222:	be 04 21 40 00       	mov    $0x402104,%esi
  400227:	48 0f 44 f0          	cmove  %rax,%rsi
  40022b:	bf 00 10 40 00       	mov    $0x401000,%edi
  400230:	e8 c8 00 00 00       	call   4002fd <out_field>
  400235:	bf 37 11 40 00       	mov    $0x401137,%edi
  40023a:	be 06 11 40 00       	mov    $0x401106,%esi
  40023f:	e8 b9 00 00 00       	call   4002fd <out_field>
  400244:	bf 32 10 40 00       	mov    $0x401032,%edi
  400249:	be 8c 10 40 00       	mov    $0x40108c,%esi
  40024e:	e8 aa 00 00 00       	call   4002fd <out_field>
  400253:	bf 62 10 40 00       	mov    $0x401062,%edi
  400258:	e8 1b 00 00 00       	call   400278 <outln>
  40025d:	31 ff                	xor    %edi,%edi
  40025f:	e8 25 00 00 00       	call   400289 <asd_exit>
  400264:	bf 45 11 40 00       	mov    $0x401145,%edi
  400269:	e8 0a 00 00 00       	call   400278 <outln>
  40026e:	bf 01 00 00 00       	mov    $0x1,%edi
  400273:	e8 11 00 00 00       	call   400289 <asd_exit>

0000000000400278 <outln>:
  400278:	55                   	push   %rbp
  400279:	48 89 e5             	mov    %rsp,%rbp
  40027c:	e8 3d 00 00 00       	call   4002be <out>
  400281:	bf 3b 11 40 00       	mov    $0x40113b,%edi
  400286:	5d                   	pop    %rbp
  400287:	eb 35                	jmp    4002be <out>

0000000000400289 <asd_exit>:
  400289:	55                   	push   %rbp
  40028a:	48 89 e5             	mov    %rsp,%rbp
  40028d:	89 fe                	mov    %edi,%esi
  40028f:	bf 01 00 00 00       	mov    $0x1,%edi
  400294:	31 d2                	xor    %edx,%edx
  400296:	31 c9                	xor    %ecx,%ecx
  400298:	45 31 c0             	xor    %r8d,%r8d
  40029b:	45 31 c9             	xor    %r9d,%r9d
  40029e:	e8 71 02 00 00       	call   400514 <__syscall>

00000000004002a3 <asd_getuid>:
  4002a3:	55                   	push   %rbp
  4002a4:	48 89 e5             	mov    %rsp,%rbp
  4002a7:	bf 10 00 00 00       	mov    $0x10,%edi
  4002ac:	31 f6                	xor    %esi,%esi
  4002ae:	31 d2                	xor    %edx,%edx
  4002b0:	31 c9                	xor    %ecx,%ecx
  4002b2:	45 31 c0             	xor    %r8d,%r8d
  4002b5:	45 31 c9             	xor    %r9d,%r9d
  4002b8:	5d                   	pop    %rbp
  4002b9:	e9 56 02 00 00       	jmp    400514 <__syscall>

00000000004002be <out>:
  4002be:	55                   	push   %rbp
  4002bf:	48 89 e5             	mov    %rsp,%rbp
  4002c2:	48 85 ff             	test   %rdi,%rdi
  4002c5:	74 34                	je     4002fb <out+0x3d>
  4002c7:	48 89 fa             	mov    %rdi,%rdx
  4002ca:	48 c7 c1 ff ff ff ff 	mov    $0xffffffffffffffff,%rcx
  4002d1:	80 7c 0a 01 00       	cmpb   $0x0,0x1(%rdx,%rcx,1)
  4002d6:	48 8d 49 01          	lea    0x1(%rcx),%rcx
  4002da:	75 f5                	jne    4002d1 <out+0x13>
  4002dc:	48 8d 04 0a          	lea    (%rdx,%rcx,1),%rax
  4002e0:	48 39 d0             	cmp    %rdx,%rax
  4002e3:	76 16                	jbe    4002fb <out+0x3d>
  4002e5:	bf 05 00 00 00       	mov    $0x5,%edi
  4002ea:	be 01 00 00 00       	mov    $0x1,%esi
  4002ef:	45 31 c0             	xor    %r8d,%r8d
  4002f2:	45 31 c9             	xor    %r9d,%r9d
  4002f5:	5d                   	pop    %rbp
  4002f6:	e9 19 02 00 00       	jmp    400514 <__syscall>
  4002fb:	5d                   	pop    %rbp
  4002fc:	c3                   	ret

00000000004002fd <out_field>:
  4002fd:	55                   	push   %rbp
  4002fe:	48 89 e5             	mov    %rsp,%rbp
  400301:	41 56                	push   %r14
  400303:	53                   	push   %rbx
  400304:	48 89 f3             	mov    %rsi,%rbx
  400307:	49 89 fe             	mov    %rdi,%r14
  40030a:	bf 5d 11 40 00       	mov    $0x40115d,%edi
  40030f:	e8 aa ff ff ff       	call   4002be <out>
  400314:	4c 89 f7             	mov    %r14,%rdi
  400317:	e8 a2 ff ff ff       	call   4002be <out>
  40031c:	bf 63 11 40 00       	mov    $0x401163,%edi
  400321:	e8 98 ff ff ff       	call   4002be <out>
  400326:	48 89 df             	mov    %rbx,%rdi
  400329:	e8 90 ff ff ff       	call   4002be <out>
  40032e:	bf 3b 11 40 00       	mov    $0x40113b,%edi
  400333:	5b                   	pop    %rbx
  400334:	41 5e                	pop    %r14
  400336:	5d                   	pop    %rbp
  400337:	eb 85                	jmp    4002be <out>

0000000000400339 <out_uptime>:
  400339:	55                   	push   %rbp
  40033a:	48 89 e5             	mov    %rsp,%rbp
  40033d:	41 57                	push   %r15
  40033f:	41 56                	push   %r14
  400341:	41 54                	push   %r12
  400343:	53                   	push   %rbx
  400344:	48 83 ec 20          	sub    $0x20,%rsp
  400348:	48 89 fb             	mov    %rdi,%rbx
  40034b:	48 81 ff 00 d6 83 00 	cmp    $0x83d600,%rdi
  400352:	0f 82 8b 00 00 00    	jb     4003e3 <out_uptime+0xaa>
  400358:	48 b9 51 a7 01 f9 26 	movabs $0xf88d2526f901a751,%rcx
  40035f:	25 8d f8 
  400362:	48 89 d8             	mov    %rbx,%rax
  400365:	48 f7 e1             	mul    %rcx
  400368:	48 c1 ea 17          	shr    $0x17,%rdx
  40036c:	41 bf 01 00 00 00    	mov    $0x1,%r15d
  400372:	4c 8d 65 bf          	lea    -0x41(%rbp),%r12
  400376:	b8 cd cc cc cc       	mov    $0xcccccccd,%eax
  40037b:	89 d1                	mov    %edx,%ecx
  40037d:	48 0f af c8          	imul   %rax,%rcx
  400381:	48 c1 e9 23          	shr    $0x23,%rcx
  400385:	8d 34 09             	lea    (%rcx,%rcx,1),%esi
  400388:	8d 34 b6             	lea    (%rsi,%rsi,4),%esi
  40038b:	89 d7                	mov    %edx,%edi
  40038d:	29 f7                	sub    %esi,%edi
  40038f:	40 80 cf 30          	or     $0x30,%dil
  400393:	41 88 7c 24 01       	mov    %dil,0x1(%r12)
  400398:	49 ff c4             	inc    %r12
  40039b:	41 ff c7             	inc    %r15d
  40039e:	83 fa 0a             	cmp    $0xa,%edx
  4003a1:	89 ca                	mov    %ecx,%edx
  4003a3:	73 d6                	jae    40037b <out_uptime+0x42>
  4003a5:	4c 8d 75 df          	lea    -0x21(%rbp),%r14
  4003a9:	41 8a 04 24          	mov    (%r12),%al
  4003ad:	88 45 df             	mov    %al,-0x21(%rbp)
  4003b0:	bf 05 00 00 00       	mov    $0x5,%edi
  4003b5:	be 01 00 00 00       	mov    $0x1,%esi
  4003ba:	b9 01 00 00 00       	mov    $0x1,%ecx
  4003bf:	4c 89 f2             	mov    %r14,%rdx
  4003c2:	45 31 c0             	xor    %r8d,%r8d
  4003c5:	45 31 c9             	xor    %r9d,%r9d
  4003c8:	e8 47 01 00 00       	call   400514 <__syscall>
  4003cd:	41 ff cf             	dec    %r15d
  4003d0:	49 ff cc             	dec    %r12
  4003d3:	41 83 ff 01          	cmp    $0x1,%r15d
  4003d7:	7f d0                	jg     4003a9 <out_uptime+0x70>
  4003d9:	bf 60 11 40 00       	mov    $0x401160,%edi
  4003de:	e8 db fe ff ff       	call   4002be <out>
  4003e3:	48 b9 7d 3d c1 3a dd 	movabs $0xba69dbdd3ac13d7d,%rcx
  4003ea:	db 69 ba 
  4003ed:	48 89 d8             	mov    %rbx,%rax
  4003f0:	48 f7 e1             	mul    %rcx
  4003f3:	49 89 d0             	mov    %rdx,%r8
  4003f6:	49 c1 e8 12          	shr    $0x12,%r8
  4003fa:	b8 ab aa aa aa       	mov    $0xaaaaaaab,%eax
  4003ff:	49 0f af c0          	imul   %r8,%rax
  400403:	48 c1 e8 24          	shr    $0x24,%rax
  400407:	c1 e0 03             	shl    $0x3,%eax
  40040a:	8d 04 40             	lea    (%rax,%rax,2),%eax
  40040d:	41 29 c0             	sub    %eax,%r8d
  400410:	48 b9 a5 29 15 67 1f 	movabs $0xaec33e1f671529a5,%rcx
  400417:	3e c3 ae 
  40041a:	48 89 d8             	mov    %rbx,%rax
  40041d:	48 f7 e1             	mul    %rcx
  400420:	48 89 d6             	mov    %rdx,%rsi
  400423:	48 c1 ee 0c          	shr    $0xc,%rsi
  400427:	b8 89 88 88 88       	mov    $0x88888889,%eax
  40042c:	48 0f af c6          	imul   %rsi,%rax
  400430:	48 c1 e8 25          	shr    $0x25,%rax
  400434:	6b c0 3c             	imul   $0x3c,%eax,%eax
  400437:	29 c6                	sub    %eax,%esi
  400439:	48 c1 eb 02          	shr    $0x2,%rbx
  40043d:	48 b9 c3 f5 28 5c 8f 	movabs $0x28f5c28f5c28f5c3,%rcx
  400444:	c2 f5 28 
  400447:	48 89 d8             	mov    %rbx,%rax
  40044a:	48 f7 e1             	mul    %rcx
  40044d:	48 89 d1             	mov    %rdx,%rcx
  400450:	48 c1 e9 02          	shr    $0x2,%rcx
  400454:	48 ba 45 44 44 44 44 	movabs $0x444444444444445,%rdx
  40045b:	44 44 04 
  40045e:	48 89 c8             	mov    %rcx,%rax
  400461:	48 f7 e2             	mul    %rdx
  400464:	48 6b c2 3c          	imul   $0x3c,%rdx,%rax
  400468:	48 29 c1             	sub    %rax,%rcx
  40046b:	43 8d 04 80          	lea    (%r8,%r8,4),%eax
  40046f:	8d 04 80             	lea    (%rax,%rax,4),%eax
  400472:	44 01 c0             	add    %r8d,%eax
  400475:	0f b6 c4             	movzbl %ah,%eax
  400478:	89 c2                	mov    %eax,%edx
  40047a:	80 ca 30             	or     $0x30,%dl
  40047d:	48 8d 7d c0          	lea    -0x40(%rbp),%rdi
  400481:	88 17                	mov    %dl,(%rdi)
  400483:	01 c0                	add    %eax,%eax
  400485:	8d 04 80             	lea    (%rax,%rax,4),%eax
  400488:	41 28 c0             	sub    %al,%r8b
  40048b:	41 80 c8 30          	or     $0x30,%r8b
  40048f:	44 88 47 01          	mov    %r8b,0x1(%rdi)
  400493:	b0 3a                	mov    $0x3a,%al
  400495:	88 47 02             	mov    %al,0x2(%rdi)
  400498:	8d 14 b6             	lea    (%rsi,%rsi,4),%edx
  40049b:	8d 14 92             	lea    (%rdx,%rdx,4),%edx
  40049e:	01 f2                	add    %esi,%edx
  4004a0:	0f b6 d6             	movzbl %dh,%edx
  4004a3:	41 89 d0             	mov    %edx,%r8d
  4004a6:	41 80 c8 30          	or     $0x30,%r8b
  4004aa:	44 88 47 03          	mov    %r8b,0x3(%rdi)
  4004ae:	01 d2                	add    %edx,%edx
  4004b0:	8d 14 92             	lea    (%rdx,%rdx,4),%edx
  4004b3:	40 28 d6             	sub    %dl,%sil
  4004b6:	40 80 ce 30          	or     $0x30,%sil
  4004ba:	40 88 77 04          	mov    %sil,0x4(%rdi)
  4004be:	88 47 05             	mov    %al,0x5(%rdi)
  4004c1:	8d 04 89             	lea    (%rcx,%rcx,4),%eax
  4004c4:	8d 04 80             	lea    (%rax,%rax,4),%eax
  4004c7:	01 c8                	add    %ecx,%eax
  4004c9:	0f b6 c4             	movzbl %ah,%eax
  4004cc:	89 c2                	mov    %eax,%edx
  4004ce:	80 ca 30             	or     $0x30,%dl
  4004d1:	88 57 06             	mov    %dl,0x6(%rdi)
  4004d4:	01 c0                	add    %eax,%eax
  4004d6:	8d 04 80             	lea    (%rax,%rax,4),%eax
  4004d9:	28 c1                	sub    %al,%cl
  4004db:	80 c9 30             	or     $0x30,%cl
  4004de:	88 4f 07             	mov    %cl,0x7(%rdi)
  4004e1:	c6 47 08 00          	movb   $0x0,0x8(%rdi)
  4004e5:	e8 d4 fd ff ff       	call   4002be <out>
  4004ea:	48 83 c4 20          	add    $0x20,%rsp
  4004ee:	5b                   	pop    %rbx
  4004ef:	41 5c                	pop    %r12
  4004f1:	41 5e                	pop    %r14
  4004f3:	41 5f                	pop    %r15
  4004f5:	5d                   	pop    %rbp
  4004f6:	c3                   	ret

00000000004004f7 <asd_time>:
  4004f7:	55                   	push   %rbp
  4004f8:	48 89 e5             	mov    %rsp,%rbp
  4004fb:	bf 0f 00 00 00       	mov    $0xf,%edi
  400500:	31 f6                	xor    %esi,%esi
  400502:	31 d2                	xor    %edx,%edx
  400504:	31 c9                	xor    %ecx,%ecx
  400506:	45 31 c0             	xor    %r8d,%r8d
  400509:	45 31 c9             	xor    %r9d,%r9d
  40050c:	5d                   	pop    %rbp
  40050d:	e9 02 00 00 00       	jmp    400514 <__syscall>
  400512:	cc                   	int3
  400513:	cc                   	int3

0000000000400514 <__syscall>:
  400514:	48 89 f8             	mov    %rdi,%rax
  400517:	48 89 f7             	mov    %rsi,%rdi
  40051a:	48 89 d6             	mov    %rdx,%rsi
  40051d:	48 89 ca             	mov    %rcx,%rdx
  400520:	4d 89 c2             	mov    %r8,%r10
  400523:	4d 89 c8             	mov    %r9,%r8
  400526:	0f 05                	syscall
  400528:	c3                   	ret
